; Function Attrs: mustprogress nofree norecurse nosync nounwind willreturn memory(argmem: read) uwtable
define hidden noundef zeroext i1 @_ZN11mpf_manager6is_oneERK3mpf(ptr nocapture noundef nonnull readnone align 8 dereferenceable(840) %this, ptr nocapture noundef nonnull readonly align 8 dereferenceable(32) %x) local_unnamed_addr #8 align 2 {
entry:
  %significand.i = getelementptr inbounds i8, ptr %x, i64 8
  %0 = load i32, ptr %significand.i, align 8
  %cmp.i = icmp eq i32 %0, 0
  %exponent.i = getelementptr inbounds i8, ptr %x, i64 24
  %1 = load i64, ptr %exponent.i, align 8
  %cmp = icmp eq i64 %1, 0
  %2 = select i1 %cmp.i, i1 %cmp, i1 false
  ret i1 %2
}